; Function Attrs: mustprogress ssp uwtable
define void @_ZNK6open3d9pipelines11integration17UniformTSDFVolume18ExtractVolumeColorEv(ptr dead_on_unwind noalias writable sret(%"class.std::vector.165") align 8 initializes((0, 24)) %0, ptr noundef nonnull align 8 dereferenceable(96) %1) local_unnamed_addr #2 align 2 personality ptr @__gxx_personality_v0 {
  %3 = tail call i32 @__kmpc_global_thread_num(ptr nonnull @2)
  tail call void @llvm.memset.p0.i64(ptr noundef nonnull align 8 dereferenceable(24) %0, i8 0, i64 24, i1 false)
  %4 = getelementptr inbounds nuw i8, ptr %1, i64 92
  %5 = load i32, ptr %4, align 4, !tbaa !188
  %6 = sext i32 %5 to i64
  invoke void @_ZNSt6vectorIN5Eigen6MatrixIdLi3ELi1ELi0ELi3ELi1EEESaIS2_EE6resizeEm(ptr noundef nonnull align 8 dereferenceable(24) %0, i64 noundef %6)
          to label %7 unwind label %10

7:                                                ; preds = %2
  %8 = invoke noundef i32 @_ZN6open3d7utility18EstimateMaxThreadsEv()
          to label %9 unwind label %10

9:                                                ; preds = %7
  tail call void @__kmpc_push_num_threads(ptr nonnull @2, i32 %3, i32 %8)
  tail call void (ptr, i32, ptr, ...) @__kmpc_fork_call(ptr nonnull @2, i32 2, ptr nonnull @_ZNK6open3d9pipelines11integration17UniformTSDFVolume18ExtractVolumeColorEv.omp_outlined, ptr nonnull %1, ptr nonnull %0)
  ret void

10:                                               ; preds = %7, %2
  %11 = landingpad { ptr, i32 }
          cleanup
  %12 = load ptr, ptr %0, align 8, !tbaa !95
  %.not.i.i.i = icmp eq ptr %12, null
  br i1 %.not.i.i.i, label %_ZNSt6vectorIN5Eigen6MatrixIdLi3ELi1ELi0ELi3ELi1EEESaIS2_EED2Ev.exit, label %13

13:                                               ; preds = %10
  %14 = getelementptr inbounds nuw i8, ptr %0, i64 16
  %15 = load ptr, ptr %14, align 8, !tbaa !94
  %16 = ptrtoint ptr %15 to i64
  %17 = ptrtoint ptr %12 to i64
  %18 = sub i64 %16, %17
  tail call void @_ZdlPvm(ptr noundef nonnull %12, i64 noundef %18) #37
  br label %_ZNSt6vectorIN5Eigen6MatrixIdLi3ELi1ELi0ELi3ELi1EEESaIS2_EED2Ev.exit

_ZNSt6vectorIN5Eigen6MatrixIdLi3ELi1ELi0ELi3ELi1EEESaIS2_EED2Ev.exit: ; preds = %10, %13
  resume { ptr, i32 } %11
}